Certificate:
    Data:
        Version: 3 (0x2)
        Serial Number: 3 (0x3)
    Signature Algorithm: sha1WithRSAEncryption
        Issuer: C=RU, ST=RU, L=Novosibirsk, O=ZenonBI, CN=ZenonBI CA/emailAddress=lik@zenonbi.com
        Validity
            Not Before: Nov 11 12:12:46 2012 GMT
            Not After : Nov  9 12:12:46 2022 GMT
        Subject: C=RU, ST=RU, L=Novosibirsk, O=ZenonBI, CN=test-client-server/emailAddress=lik@zenonbi.com
        Subject Public Key Info:
            Public Key Algorithm: rsaEncryption
                Public-Key: (1024 bit)
                Modulus:
                    00:bc:3c:7a:cd:d7:9d:2e:d7:a6:8c:57:51:83:ba:
                    a5:bb:de:21:ed:16:a4:2d:c1:0f:0d:d5:50:cf:8a:
                    e0:9c:5a:8e:02:1f:dd:be:07:76:09:30:ef:b1:0b:
                    94:df:58:80:52:bd:4f:2b:a3:dd:45:c3:16:58:81:
                    70:1d:da:9b:fd:01:da:cb:e2:1e:00:df:61:77:e9:
                    e4:41:da:7c:fd:ec:bd:a0:dc:06:b6:01:e1:4f:56:
                    46:57:c6:15:1d:b5:f1:06:99:0d:cf:29:d9:32:97:
                    46:14:2a:44:d6:bf:14:92:9e:bf:16:b0:72:c4:28:
                    e2:97:12:11:94:5a:65:d5:e3
                Exponent: 65537 (0x10001)
        X509v3 extensions:
            X509v3 Basic Constraints: 
                CA:FALSE
            Netscape Comment: 
                Easy-RSA Generated Certificate
            X509v3 Subject Key Identifier: 
                F2:AD:E2:83:5A:E4:B4:35:13:FC:6E:ED:B5:DE:10:AD:F9:1B:B9:99
            X509v3 Authority Key Identifier: 
                keyid:E1:9A:D4:CB:2F:F3:1D:81:E9:7C:C6:47:49:66:8D:1D:70:98:49:4E
                DirName:/C=RU/ST=RU/L=Novosibirsk/O=ZenonBI/CN=ZenonBI CA/emailAddress=lik@zenonbi.com
                serial:F4:41:B3:43:B5:4E:EC:48

            X509v3 Extended Key Usage: 
                TLS Web Client Authentication
            X509v3 Key Usage: 
                Digital Signature
    Signature Algorithm: sha1WithRSAEncryption
         15:54:6d:7f:b5:8b:4b:e0:37:9a:d4:2b:39:6b:6a:f1:e5:c7:
         94:29:9f:78:85:ef:80:90:78:e4:d1:30:20:4a:e7:d7:6f:1f:
         42:6c:ba:35:20:ef:a7:af:c0:5e:47:e9:e4:94:f6:6a:db:13:
         06:90:45:0b:94:ed:0b:47:e0:52:eb:70:1c:30:1b:3a:49:9e:
         73:bf:ea:cb:ff:ed:84:fa:a3:a9:0d:3e:ef:df:e9:43:1b:fa:
         53:41:fc:a2:3e:fb:a5:7c:37:85:5e:94:fe:51:1b:e9:01:74:
         02:64:c0:e3:1e:77:da:89:63:3a:f2:54:6c:f0:72:0c:bf:24:
         2e:86
-----BEGIN CERTIFICATE-----
MIIDmTCCAwKgAwIBAgIBAzANBgkqhkiG9w0BAQUFADB3MQswCQYDVQQGEwJSVTEL
MAkGA1UECBMCUlUxFDASBgNVBAcTC05vdm9zaWJpcnNrMRAwDgYDVQQKEwdaZW5v
bkJJMRMwEQYDVQQDEwpaZW5vbkJJIENBMR4wHAYJKoZIhvcNAQkBFg9saWtAemVu
b25iaS5jb20wHhcNMTIxMTExMTIxMjQ2WhcNMjIxMTA5MTIxMjQ2WjB/MQswCQYD
VQQGEwJSVTELMAkGA1UECBMCUlUxFDASBgNVBAcTC05vdm9zaWJpcnNrMRAwDgYD
VQQKEwdaZW5vbkJJMRswGQYDVQQDExJ0ZXN0LWNsaWVudC1zZXJ2ZXIxHjAcBgkq
hkiG9w0BCQEWD2xpa0B6ZW5vbmJpLmNvbTCBnzANBgkqhkiG9w0BAQEFAAOBjQAw
gYkCgYEAvDx6zdedLtemjFdRg7qlu94h7RakLcEPDdVQz4rgnFqOAh/dvgd2CTDv
sQuU31iAUr1PK6PdRcMWWIFwHdqb/QHay+IeAN9hd+nkQdp8/ey9oNwGtgHhT1ZG
V8YVHbXxBpkNzynZMpdGFCpE1r8Ukp6/FrByxCjilxIRlFpl1eMCAwEAAaOCASsw
ggEnMAkGA1UdEwQCMAAwLQYJYIZIAYb4QgENBCAWHkVhc3ktUlNBIEdlbmVyYXRl
ZCBDZXJ0aWZpY2F0ZTAdBgNVHQ4EFgQU8q3ig1rktDUT/G7ttd4QrfkbuZkwgakG
A1UdIwSBoTCBnoAU4ZrUyy/zHYHpfMZHSWaNHXCYSU6he6R5MHcxCzAJBgNVBAYT
AlJVMQswCQYDVQQIEwJSVTEUMBIGA1UEBxMLTm92b3NpYmlyc2sxEDAOBgNVBAoT
B1plbm9uQkkxEzARBgNVBAMTClplbm9uQkkgQ0ExHjAcBgkqhkiG9w0BCQEWD2xp
a0B6ZW5vbmJpLmNvbYIJAPRBs0O1TuxIMBMGA1UdJQQMMAoGCCsGAQUFBwMCMAsG
A1UdDwQEAwIHgDANBgkqhkiG9w0BAQUFAAOBgQAVVG1/tYtL4Dea1Cs5a2rx5ceU
KZ94he+AkHjk0TAgSufXbx9CbLo1IO+nr8BeR+nklPZq2xMGkEULlO0LR+BS63Ac
MBs6SZ5zv+rL/+2E+qOpDT7v3+lDG/pTQfyiPvulfDeFXpT+URvpAXQCZMDjHnfa
iWM68lRs8HIMvyQuhg==
-----END CERTIFICATE-----
